target datalayout = "e-m:e-p270:32:32-p271:32:32-p272:64:64-i64:64-i128:128-f80:128-n8:16:32:64-S128"
target triple = "x86_64-pc-linux-gnu"

@hf_kafka_partition_id = internal global i32 0, align 4
@hf_kafka_leader_epoch = internal global i32 0, align 4
@hf_kafka_current_leader_epoch = internal global i32 0, align 4
@ett_kafka_partition = internal global i32 0, align 4
@.str.643 = private unnamed_addr constant [10 x i8] c"Partition\00", align 1
@.str.644 = private unnamed_addr constant [9 x i8] c" (ID=%u)\00", align 1

; Function Attrs: null_pointer_is_valid sspstrong uwtable
define internal i32 @dissect_kafka_offset_for_leader_epoch_request_topic_partition(ptr noundef %0, ptr noundef %1, ptr noundef %2, i32 noundef %3, i16 noundef signext %4) #0 {
  %6 = alloca ptr, align 8
  %7 = alloca ptr, align 8
  %8 = alloca ptr, align 8
  %9 = alloca i32, align 4
  %10 = alloca i16, align 2
  %11 = alloca i32, align 4
  %12 = alloca ptr, align 8
  %13 = alloca ptr, align 8
  store ptr %0, ptr %6, align 8
  store ptr %1, ptr %7, align 8
  store ptr %2, ptr %8, align 8
  store i32 %3, ptr %9, align 4
  store i16 %4, ptr %10, align 2
  call void @llvm.lifetime.start.p0(i64 4, ptr %11) #12
  call void @llvm.lifetime.start.p0(i64 8, ptr %12) #12
  call void @llvm.lifetime.start.p0(i64 8, ptr %13) #12
  %14 = load ptr, ptr %8, align 8
  %15 = load ptr, ptr %6, align 8
  %16 = load i32, ptr %9, align 4
  %17 = load i32, ptr @ett_kafka_partition, align 4
  %18 = call ptr @proto_tree_add_subtree(ptr noundef %14, ptr noundef %15, i32 noundef %16, i32 noundef -1, i32 noundef %17, ptr noundef %12, ptr noundef @.str.643)
  store ptr %18, ptr %13, align 8
  %19 = load ptr, ptr %6, align 8
  %20 = load i32, ptr %9, align 4
  %21 = call i32 @tvb_get_ntohl(ptr noundef %19, i32 noundef %20)
  store i32 %21, ptr %11, align 4
  %22 = load ptr, ptr %13, align 8
  %23 = load i32, ptr @hf_kafka_partition_id, align 4
  %24 = load ptr, ptr %6, align 8
  %25 = load i32, ptr %9, align 4
  %26 = call ptr @proto_tree_add_item(ptr noundef %22, i32 noundef %23, ptr noundef %24, i32 noundef %25, i32 noundef 4, i32 noundef 0)
  %27 = load i32, ptr %9, align 4
  %28 = add i32 %27, 4
  store i32 %28, ptr %9, align 4
  %29 = load i16, ptr %10, align 2
  %30 = sext i16 %29 to i32
  %31 = icmp sge i32 %30, 2
  br i1 %31, label %32, label %40

32:                                               ; preds = %5
  %33 = load ptr, ptr %13, align 8
  %34 = load i32, ptr @hf_kafka_current_leader_epoch, align 4
  %35 = load ptr, ptr %6, align 8
  %36 = load i32, ptr %9, align 4
  %37 = call ptr @proto_tree_add_item(ptr noundef %33, i32 noundef %34, ptr noundef %35, i32 noundef %36, i32 noundef 4, i32 noundef 0)
  %38 = load i32, ptr %9, align 4
  %39 = add i32 %38, 4
  store i32 %39, ptr %9, align 4
  br label %40

40:                                               ; preds = %32, %5
  %41 = load ptr, ptr %13, align 8
  %42 = load i32, ptr @hf_kafka_leader_epoch, align 4
  %43 = load ptr, ptr %6, align 8
  %44 = load i32, ptr %9, align 4
  %45 = call ptr @proto_tree_add_item(ptr noundef %41, i32 noundef %42, ptr noundef %43, i32 noundef %44, i32 noundef 4, i32 noundef 0)
  %46 = load i32, ptr %9, align 4
  %47 = add i32 %46, 4
  store i32 %47, ptr %9, align 4
  %48 = load ptr, ptr %12, align 8
  %49 = load ptr, ptr %6, align 8
  %50 = load i32, ptr %9, align 4
  call void @proto_item_set_end(ptr noundef %48, ptr noundef %49, i32 noundef %50)
  %51 = load ptr, ptr %12, align 8
  %52 = load i32, ptr %11, align 4
  call void (ptr, ptr, ...) @proto_item_append_text(ptr noundef %51, ptr noundef @.str.644, i32 noundef %52)
  %53 = load i32, ptr %9, align 4
  call void @llvm.lifetime.end.p0(i64 8, ptr %13) #12
  call void @llvm.lifetime.end.p0(i64 8, ptr %12) #12
  call void @llvm.lifetime.end.p0(i64 4, ptr %11) #12
  ret i32 %53
}