; Function Attrs: null_pointer_is_valid sspstrong uwtable
define internal noundef i32 @dissect_kafka_offset_for_leader_epoch_request_topic_partition(ptr noundef %0, ptr readnone captures(none) %1, ptr noundef %2, i32 noundef %3, i16 noundef signext %4) #0 {
  %6 = alloca ptr, align 8
  call void @llvm.lifetime.start.p0(i64 8, ptr nonnull %6) #9
  %7 = load i32, ptr @ett_kafka_partition, align 4
  %8 = call ptr @proto_tree_add_subtree(ptr noundef %2, ptr noundef %0, i32 noundef %3, i32 noundef -1, i32 noundef %7, ptr noundef nonnull %6, ptr noundef nonnull @.str.643)
  %9 = call i32 @tvb_get_ntohl(ptr noundef %0, i32 noundef %3)
  %10 = load i32, ptr @hf_kafka_partition_id, align 4
  %11 = call ptr @proto_tree_add_item(ptr noundef %8, i32 noundef %10, ptr noundef %0, i32 noundef %3, i32 noundef 4, i32 noundef 0)
  %12 = add i32 %3, 4
  %13 = icmp sgt i16 %4, 1
  br i1 %13, label %14, label %18

14:                                               ; preds = %5
  %15 = load i32, ptr @hf_kafka_current_leader_epoch, align 4
  %16 = call ptr @proto_tree_add_item(ptr noundef %8, i32 noundef %15, ptr noundef %0, i32 noundef %12, i32 noundef 4, i32 noundef 0)
  %17 = add i32 %3, 8
  br label %18

18:                                               ; preds = %14, %5
  %.0 = phi i32 [ %17, %14 ], [ %12, %5 ]
  %19 = load i32, ptr @hf_kafka_leader_epoch, align 4
  %20 = call ptr @proto_tree_add_item(ptr noundef %8, i32 noundef %19, ptr noundef %0, i32 noundef %.0, i32 noundef 4, i32 noundef 0)
  %21 = add i32 %.0, 4
  %22 = load ptr, ptr %6, align 8
  call void @proto_item_set_end(ptr noundef %22, ptr noundef %0, i32 noundef %21)
  %23 = load ptr, ptr %6, align 8
  call void (ptr, ptr, ...) @proto_item_append_text(ptr noundef %23, ptr noundef nonnull @.str.644, i32 noundef %9)
  call void @llvm.lifetime.end.p0(i64 8, ptr nonnull %6) #9
  ret i32 %21
}